; Function Attrs: mustprogress uwtable
define hidden noundef nonnull align 8 dereferenceable(8) ptr @_ZN3smt12clause_proof12display_hintERSoP3app(ptr noundef nonnull align 8 dereferenceable(864) %0, ptr noundef nonnull returned align 8 dereferenceable(8) %1, ptr noundef %2) local_unnamed_addr #4 align 2 {
  %.not = icmp eq ptr %2, null
  br i1 %.not, label %8, label %4

4:                                                ; preds = %3
  %5 = getelementptr inbounds nuw i8, ptr %0, i64 88
  %6 = tail call noundef nonnull align 8 dereferenceable(8) ptr @_ZSt16__ostream_insertIcSt11char_traitsIcEERSt13basic_ostreamIT_T0_ES6_PKS3_l(ptr noundef nonnull align 8 dereferenceable(8) %1, ptr noundef nonnull @.str.13, i64 noundef 1)
  %7 = tail call noundef nonnull align 8 dereferenceable(8) ptr @_ZN11ast_pp_util16display_expr_defERSoP4expr(ptr noundef nonnull align 8 dereferenceable(704) %5, ptr noundef nonnull align 8 dereferenceable(8) %1, ptr noundef nonnull %2)
  br label %8

8:                                                ; preds = %4, %3
  ret ptr %1
}